; Function Attrs: nounwind uwtable
define ptr @l_Std_Range_forIn_x27_loop___at_Lean_Meta_MatcherApp_transform___spec__14___rarg___lambda__11(ptr noundef %0, ptr noundef %1, ptr noundef %2, ptr noundef %3, ptr noundef %4, ptr noundef %5, ptr noundef %6, ptr noundef %7, ptr noundef %8) #1 {
  %10 = tail call ptr @lean_array_push(ptr noundef %0, ptr noundef %8) #4
  %11 = getelementptr inbounds nuw i8, ptr %1, i64 8
  %12 = load ptr, ptr %11, align 8, !tbaa !4
  %13 = ptrtoint ptr %12 to i64
  %14 = and i64 %13, 1
  %.not = icmp eq i64 %14, 0
  br i1 %.not, label %15, label %lean_inc.exit30

15:                                               ; preds = %9
  %.val.i = load i32, ptr %12, align 4, !tbaa !8
  %16 = icmp sgt i32 %.val.i, 0
  br i1 %16, label %17, label %19, !prof !11

17:                                               ; preds = %15
  %18 = add nuw i32 %.val.i, 1
  store i32 %18, ptr %12, align 4, !tbaa !8
  br label %lean_inc.exit30

19:                                               ; preds = %15
  %.not.i34 = icmp eq i32 %.val.i, 0
  br i1 %.not.i34, label %lean_inc.exit30, label %20

20:                                               ; preds = %19
  tail call void @lean_inc_ref_cold(ptr noundef nonnull %12) #4
  br label %lean_inc.exit30

lean_inc.exit30:                                  ; preds = %20, %19, %17, %9
  %21 = ptrtoint ptr %1 to i64
  %22 = and i64 %21, 1
  %.not41 = icmp eq i64 %22, 0
  br i1 %.not41, label %23, label %lean_dec.exit31

23:                                               ; preds = %lean_inc.exit30
  %24 = load i32, ptr %1, align 4, !tbaa !8
  %25 = icmp sgt i32 %24, 1
  br i1 %25, label %26, label %28, !prof !11

26:                                               ; preds = %23
  %27 = add nsw i32 %24, -1
  store i32 %27, ptr %1, align 4, !tbaa !8
  br label %lean_dec.exit31

28:                                               ; preds = %23
  %.not.i = icmp eq i32 %24, 0
  br i1 %.not.i, label %lean_dec.exit31, label %29

29:                                               ; preds = %28
  tail call void @lean_dec_ref_cold(ptr noundef nonnull %1) #4
  br label %lean_dec.exit31

lean_dec.exit31:                                  ; preds = %29, %28, %26, %lean_inc.exit30
  %30 = getelementptr inbounds nuw i8, ptr %12, i64 16
  %31 = load ptr, ptr %30, align 8, !tbaa !4
  %32 = ptrtoint ptr %31 to i64
  %33 = and i64 %32, 1
  %.not42 = icmp eq i64 %33, 0
  br i1 %.not42, label %34, label %lean_inc.exit29

34:                                               ; preds = %lean_dec.exit31
  %.val.i35 = load i32, ptr %31, align 4, !tbaa !8
  %35 = icmp sgt i32 %.val.i35, 0
  br i1 %35, label %36, label %38, !prof !11

36:                                               ; preds = %34
  %37 = add nuw i32 %.val.i35, 1
  store i32 %37, ptr %31, align 4, !tbaa !8
  br label %lean_inc.exit29

38:                                               ; preds = %34
  %.not.i36 = icmp eq i32 %.val.i35, 0
  br i1 %.not.i36, label %lean_inc.exit29, label %39

39:                                               ; preds = %38
  tail call void @lean_inc_ref_cold(ptr noundef nonnull %31) #4
  br label %lean_inc.exit29

lean_inc.exit29:                                  ; preds = %39, %38, %36, %lean_dec.exit31
  br i1 %.not, label %40, label %lean_dec.exit

40:                                               ; preds = %lean_inc.exit29
  %41 = load i32, ptr %12, align 4, !tbaa !8
  %42 = icmp sgt i32 %41, 1
  br i1 %42, label %43, label %45, !prof !11

43:                                               ; preds = %40
  %44 = add nsw i32 %41, -1
  store i32 %44, ptr %12, align 4, !tbaa !8
  br label %lean_dec.exit

45:                                               ; preds = %40
  %.not.i32 = icmp eq i32 %41, 0
  br i1 %.not.i32, label %lean_dec.exit, label %46

46:                                               ; preds = %45
  tail call void @lean_dec_ref_cold(ptr noundef nonnull %12) #4
  br label %lean_dec.exit

lean_dec.exit:                                    ; preds = %46, %45, %43, %lean_inc.exit29
  br i1 %.not42, label %47, label %lean_inc.exit

47:                                               ; preds = %lean_dec.exit
  %.val.i38 = load i32, ptr %31, align 4, !tbaa !8
  %48 = icmp sgt i32 %.val.i38, 0
  br i1 %48, label %49, label %51, !prof !11

49:                                               ; preds = %47
  %50 = add nuw i32 %.val.i38, 1
  store i32 %50, ptr %31, align 4, !tbaa !8
  br label %lean_inc.exit

51:                                               ; preds = %47
  %.not.i39 = icmp eq i32 %.val.i38, 0
  br i1 %.not.i39, label %lean_inc.exit, label %52

52:                                               ; preds = %51
  tail call void @lean_inc_ref_cold(ptr noundef nonnull %31) #4
  br label %lean_inc.exit

lean_inc.exit:                                    ; preds = %52, %51, %49, %lean_dec.exit
  %53 = tail call ptr @lean_apply_2(ptr noundef %31, ptr noundef nonnull inttoptr (i64 1 to ptr), ptr noundef nonnull inttoptr (i64 1 to ptr)) #4
  tail call void @lean_inc_heartbeat() #4
  %54 = tail call noalias ptr @mi_malloc_small(i64 noundef 80) #4
  %55 = icmp eq ptr %54, null
  br i1 %55, label %56, label %lean_alloc_closure.exit

56:                                               ; preds = %lean_inc.exit
  tail call void @lean_internal_panic_out_of_memory() #5
  unreachable

lean_alloc_closure.exit:                          ; preds = %lean_inc.exit
  %57 = getelementptr inbounds nuw i8, ptr %54, i64 4
  store i32 1, ptr %54, align 4, !tbaa !8
  store i32 -184549296, ptr %57, align 4
  %58 = getelementptr inbounds nuw i8, ptr %54, i64 8
  store ptr @l_Std_Range_forIn_x27_loop___at_Lean_Meta_MatcherApp_transform___spec__14___rarg___lambda__10___boxed, ptr %58, align 8, !tbaa !4
  %59 = getelementptr inbounds nuw i8, ptr %54, i64 16
  store i16 8, ptr %59, align 8, !tbaa !15
  %60 = getelementptr inbounds nuw i8, ptr %54, i64 18
  store i16 7, ptr %60, align 2, !tbaa !15
  %61 = getelementptr inbounds nuw i8, ptr %54, i64 24
  store ptr %2, ptr %61, align 8, !tbaa !4
  %62 = getelementptr inbounds nuw i8, ptr %54, i64 32
  store ptr %10, ptr %62, align 8, !tbaa !4
  %63 = getelementptr inbounds nuw i8, ptr %54, i64 40
  store ptr %3, ptr %63, align 8, !tbaa !4
  %64 = getelementptr inbounds nuw i8, ptr %54, i64 48
  store ptr %4, ptr %64, align 8, !tbaa !4
  %65 = getelementptr inbounds nuw i8, ptr %54, i64 56
  store ptr %5, ptr %65, align 8, !tbaa !4
  %66 = getelementptr inbounds nuw i8, ptr %54, i64 64
  store ptr %6, ptr %66, align 8, !tbaa !4
  %67 = getelementptr inbounds nuw i8, ptr %54, i64 72
  store ptr %31, ptr %67, align 8, !tbaa !4
  %68 = tail call ptr @lean_apply_4(ptr noundef %7, ptr noundef nonnull inttoptr (i64 1 to ptr), ptr noundef nonnull inttoptr (i64 1 to ptr), ptr noundef %53, ptr noundef nonnull %54) #4
  ret ptr %68
}